; ModuleID = 'source-C-CXX/27/453.c'
source_filename = "source-C-CXX/27/453.c"
target datalayout = "e-m:e-p270:32:32-p271:32:32-p272:64:64-i64:64-f80:128-n8:16:32:64-S128"
target triple = "x86_64-pc-linux-gnu"

@.str = private unnamed_addr constant [3 x i8] c"%d\00", align 1
@.str.1 = private unnamed_addr constant [4 x i8] c",%d\00", align 1

; Function Attrs: nounwind sspstrong uwtable
define dso_local i32 @main() local_unnamed_addr #0 {
  %1 = alloca [1000 x i32], align 16
  %2 = alloca [10000 x i8], align 16
  %3 = bitcast [1000 x i32]* %1 to i8*
  call void @llvm.lifetime.start.p0i8(i64 4000, i8* nonnull %3) #6
  %4 = getelementptr inbounds [10000 x i8], [10000 x i8]* %2, i64 0, i64 0
  call void @llvm.lifetime.start.p0i8(i64 10000, i8* nonnull %4) #6
  %5 = call i32 (i8*, ...) bitcast (i32 (...)* @gets to i32 (i8*, ...)*)(i8* nonnull %4) #6
  %6 = call i64 @strlen(i8* noundef nonnull %4) #7
  %7 = trunc i64 %6 to i32
  %8 = shl i64 %6, 32
  %9 = ashr exact i64 %8, 32
  %10 = getelementptr inbounds [10000 x i8], [10000 x i8]* %2, i64 0, i64 %9
  store i8 32, i8* %10, align 1, !tbaa !5
  %11 = add i64 %8, 4294967296
  %12 = ashr exact i64 %11, 32
  %13 = getelementptr inbounds [10000 x i8], [10000 x i8]* %2, i64 0, i64 %12
  store i8 0, i8* %13, align 1, !tbaa !5
  %14 = icmp sgt i32 %7, 0
  br i1 %14, label %17, label %15

15:                                               ; preds = %0
  %16 = call i32 (i8*, ...) @printf(i8* nonnull dereferenceable(1) getelementptr inbounds ([3 x i8], [3 x i8]* @.str, i64 0, i64 0), i32 undef)
  br label %63

17:                                               ; preds = %0
  %18 = shl i64 %6, 32
  %19 = ashr exact i64 %18, 32
  br label %20

20:                                               ; preds = %17, %43
  %21 = phi i32 [ %45, %43 ], [ 0, %17 ]
  %22 = phi i32 [ %46, %43 ], [ 0, %17 ]
  %23 = sext i32 %22 to i64
  %24 = getelementptr inbounds [10000 x i8], [10000 x i8]* %2, i64 0, i64 %23
  %25 = load i8, i8* %24, align 1, !tbaa !5
  %26 = icmp eq i8 %25, 32
  br i1 %26, label %43, label %27

27:                                               ; preds = %20
  %28 = call i64 @llvm.smax.i64(i64 %23, i64 %19)
  br label %29

29:                                               ; preds = %27, %33
  %30 = phi i64 [ %23, %27 ], [ %31, %33 ]
  %31 = add nsw i64 %30, 1
  %32 = icmp eq i64 %30, %28
  br i1 %32, label %43, label %33

33:                                               ; preds = %29
  %34 = getelementptr inbounds [10000 x i8], [10000 x i8]* %2, i64 0, i64 %31
  %35 = load i8, i8* %34, align 1, !tbaa !5
  %36 = icmp eq i8 %35, 32
  br i1 %36, label %37, label %29, !llvm.loop !8

37:                                               ; preds = %33
  %38 = trunc i64 %31 to i32
  %39 = add nsw i32 %21, 1
  %40 = sub nsw i32 %38, %22
  %41 = sext i32 %39 to i64
  %42 = getelementptr inbounds [1000 x i32], [1000 x i32]* %1, i64 0, i64 %41
  store i32 %40, i32* %42, align 4, !tbaa !10
  br label %43

43:                                               ; preds = %29, %20, %37
  %44 = phi i32 [ %38, %37 ], [ %22, %20 ], [ %22, %29 ]
  %45 = phi i32 [ %39, %37 ], [ %21, %20 ], [ %21, %29 ]
  %46 = add nsw i32 %44, 1
  %47 = icmp slt i32 %46, %7
  br i1 %47, label %20, label %48, !llvm.loop !12

48:                                               ; preds = %43
  %49 = getelementptr inbounds [1000 x i32], [1000 x i32]* %1, i64 0, i64 1
  %50 = load i32, i32* %49, align 4, !tbaa !10
  %51 = call i32 (i8*, ...) @printf(i8* nonnull dereferenceable(1) getelementptr inbounds ([3 x i8], [3 x i8]* @.str, i64 0, i64 0), i32 %50)
  %52 = icmp slt i32 %45, 2
  br i1 %52, label %63, label %53

53:                                               ; preds = %48
  %54 = add nuw i32 %45, 1
  %55 = zext i32 %54 to i64
  br label %56

56:                                               ; preds = %53, %56
  %57 = phi i64 [ 2, %53 ], [ %61, %56 ]
  %58 = getelementptr inbounds [1000 x i32], [1000 x i32]* %1, i64 0, i64 %57
  %59 = load i32, i32* %58, align 4, !tbaa !10
  %60 = call i32 (i8*, ...) @printf(i8* nonnull dereferenceable(1) getelementptr inbounds ([4 x i8], [4 x i8]* @.str.1, i64 0, i64 0), i32 %59)
  %61 = add nuw nsw i64 %57, 1
  %62 = icmp eq i64 %61, %55
  br i1 %62, label %63, label %56, !llvm.loop !13

63:                                               ; preds = %56, %15, %48
  call void @llvm.lifetime.end.p0i8(i64 10000, i8* nonnull %4) #6
  call void @llvm.lifetime.end.p0i8(i64 4000, i8* nonnull %3) #6
  ret i32 0
}

; Function Attrs: argmemonly mustprogress nofree nosync nounwind willreturn
declare void @llvm.lifetime.start.p0i8(i64 immarg, i8* nocapture) #1

declare i32 @gets(...) local_unnamed_addr #2

; Function Attrs: argmemonly mustprogress nofree nounwind readonly willreturn
declare i64 @strlen(i8* nocapture) local_unnamed_addr #3

; Function Attrs: nofree nounwind
declare noundef i32 @printf(i8* nocapture noundef readonly, ...) local_unnamed_addr #4

; Function Attrs: argmemonly mustprogress nofree nosync nounwind willreturn
declare void @llvm.lifetime.end.p0i8(i64 immarg, i8* nocapture) #1

; Function Attrs: nofree nosync nounwind readnone speculatable willreturn
declare i64 @llvm.smax.i64(i64, i64) #5


!llvm.module.flags = !{!0, !1, !2, !3}
!llvm.ident = !{!4}

!0 = !{i32 1, !"wchar_size", i32 4}
!1 = !{i32 7, !"PIC Level", i32 2}
!2 = !{i32 7, !"PIE Level", i32 2}
!3 = !{i32 7, !"uwtable", i32 1}
!4 = !{!"clang version 13.0.0"}
!5 = !{!6, !6, i64 0}
!6 = !{!"omnipotent char", !7, i64 0}
!7 = !{!"Simple C/C++ TBAA"}
!8 = distinct !{!8, !9}
!9 = !{!"llvm.loop.mustprogress"}
!10 = !{!11, !11, i64 0}
!11 = !{!"int", !6, i64 0}
!12 = distinct !{!12, !9}
!13 = distinct !{!13, !9}
